; Function Attrs: nounwind uwtable
define dso_local noundef ptr @ExecPrepareCheck(ptr noundef %0, ptr noundef readonly captures(none) %1) local_unnamed_addr #0 {
  %3 = getelementptr inbounds nuw i8, ptr %1, i64 192
  %4 = load ptr, ptr %3, align 8
  %5 = load ptr, ptr @CurrentMemoryContext, align 8
  store ptr %4, ptr @CurrentMemoryContext, align 8
  %6 = tail call ptr @expression_planner(ptr noundef %0) #10
  %7 = icmp eq ptr %6, null
  br i1 %7, label %ExecInitCheck.exit, label %8

8:                                                ; preds = %2
  %9 = tail call ptr @make_ands_explicit(ptr noundef nonnull %6) #10
  %10 = tail call ptr @ExecInitExpr(ptr noundef %9, ptr noundef null)
  br label %ExecInitCheck.exit

ExecInitCheck.exit:                               ; preds = %2, %8
  %.0.i = phi ptr [ %10, %8 ], [ null, %2 ]
  store ptr %5, ptr @CurrentMemoryContext, align 8
  ret ptr %.0.i
}